target datalayout = "e-m:e-p270:32:32-p271:32:32-p272:64:64-i64:64-i128:128-f80:128-n8:16:32:64-S128"
target triple = "x86_64-pc-linux-gnu"

; Function Attrs: mustprogress nounwind uwtable
define void @_ZN4Cube15FactorEdgeIndexEiRiS0_S0_(i32 noundef %0, ptr noundef nonnull align 4 dereferenceable(4) %1, ptr noundef nonnull align 4 dereferenceable(4) %2, ptr noundef nonnull align 4 dereferenceable(4) %3) #1 align 2 {
  %5 = alloca i32, align 4
  %6 = alloca ptr, align 8
  %7 = alloca ptr, align 8
  %8 = alloca ptr, align 8
  store i32 %0, ptr %5, align 4
  store ptr %1, ptr %6, align 8
  store ptr %2, ptr %7, align 8
  store ptr %3, ptr %8, align 8
  %9 = load i32, ptr %5, align 4
  %10 = ashr i32 %9, 2
  %11 = load ptr, ptr %6, align 8
  store i32 %10, ptr %11, align 4
  %12 = load i32, ptr %5, align 4
  %13 = and i32 %12, 1
  %14 = load ptr, ptr %7, align 8
  store i32 %13, ptr %14, align 4
  %15 = load i32, ptr %5, align 4
  %16 = and i32 %15, 2
  %17 = ashr i32 %16, 1
  %18 = load ptr, ptr %8, align 8
  store i32 %17, ptr %18, align 4
  ret void
}