; Function Attrs: mustprogress nofree norecurse nosync nounwind willreturn memory(argmem: write) uwtable
define void @_ZN4Cube15FactorEdgeIndexEiRiS0_S0_(i32 noundef %0, ptr noundef nonnull writeonly align 4 captures(none) dereferenceable(4) initializes((0, 4)) %1, ptr noundef nonnull writeonly align 4 captures(none) dereferenceable(4) initializes((0, 4)) %2, ptr noundef nonnull writeonly align 4 captures(none) dereferenceable(4) initializes((0, 4)) %3) local_unnamed_addr #1 align 2 {
  %5 = ashr i32 %0, 2
  store i32 %5, ptr %1, align 4
  %6 = and i32 %0, 1
  store i32 %6, ptr %2, align 4
  %7 = lshr i32 %0, 1
  %8 = and i32 %7, 1
  store i32 %8, ptr %3, align 4
  ret void
}